target datalayout = "e-m:e-p270:32:32-p271:32:32-p272:64:64-i64:64-i128:128-f80:128-n8:16:32:64-S128"
target triple = "x86_64-pc-linux-gnu"

%"struct.pbrt::DisplayItem::ImageChannelBuffer" = type { %"class.std::vector.9", i32, i32, %"class.std::vector.14", i32, i32 }
%"class.std::vector.9" = type { %"struct.std::_Vector_base.10" }
%"struct.std::_Vector_base.10" = type { %"struct.std::_Vector_base<unsigned char, std::allocator<unsigned char>>::_Vector_impl" }
%"struct.std::_Vector_base<unsigned char, std::allocator<unsigned char>>::_Vector_impl" = type { %"struct.std::_Vector_base<unsigned char, std::allocator<unsigned char>>::_Vector_impl_data" }
%"struct.std::_Vector_base<unsigned char, std::allocator<unsigned char>>::_Vector_impl_data" = type { ptr, ptr, ptr }
%"class.std::vector.14" = type { %"struct.std::_Vector_base.15" }
%"struct.std::_Vector_base.15" = type { %"struct.std::_Vector_base<unsigned long, std::allocator<unsigned long>>::_Vector_impl" }
%"struct.std::_Vector_base<unsigned long, std::allocator<unsigned long>>::_Vector_impl" = type { %"struct.std::_Vector_base<unsigned long, std::allocator<unsigned long>>::_Vector_impl_data" }
%"struct.std::_Vector_base<unsigned long, std::allocator<unsigned long>>::_Vector_impl_data" = type { ptr, ptr, ptr }

; Function Attrs: mustprogress nounwind uwtable
define linkonce_odr dso_local noundef ptr @_ZNKSt6vectorIhSaIhEE11_M_data_ptrIhEEPT_S4_(ptr noundef nonnull align 8 dereferenceable(24) %0, ptr noundef %1) #3 comdat align 2 {
  %3 = alloca ptr, align 8
  %4 = alloca ptr, align 8
  store ptr %0, ptr %3, align 8, !tbaa !119
  store ptr %1, ptr %4, align 8, !tbaa !30
  %5 = load ptr, ptr %4, align 8, !tbaa !30
  ret ptr %5
}

; Function Attrs: mustprogress nounwind uwtable
define internal void @_ZN4pbrt12_GLOBAL__N_19SerializeIiEEvPPhT_(ptr noundef %0, i32 noundef %1) #3 {
  %3 = alloca ptr, align 8
  %4 = alloca i32, align 4
  store ptr %0, ptr %3, align 8, !tbaa !60
  store i32 %1, ptr %4, align 4, !tbaa !28
  %5 = load ptr, ptr %3, align 8, !tbaa !60
  %6 = load ptr, ptr %5, align 8, !tbaa !30
  call void @llvm.memcpy.p0.p0.i64(ptr align 1 %6, ptr align 4 %4, i64 4, i1 false)
  %7 = load ptr, ptr %3, align 8, !tbaa !60
  %8 = load ptr, ptr %7, align 8, !tbaa !30
  %9 = getelementptr inbounds nuw i8, ptr %8, i64 4
  store ptr %9, ptr %7, align 8, !tbaa !30
  ret void
}

; Function Attrs: mustprogress nounwind uwtable
define linkonce_odr dso_local noundef ptr @_ZNSt6vectorIhSaIhEE4dataEv(ptr noundef nonnull align 8 dereferenceable(24) %0) #3 comdat align 2 {
  %2 = alloca ptr, align 8
  store ptr %0, ptr %2, align 8, !tbaa !119
  %3 = load ptr, ptr %2, align 8
  %4 = getelementptr inbounds nuw %"struct.std::_Vector_base.10", ptr %3, i32 0, i32 0
  %5 = getelementptr inbounds nuw %"struct.std::_Vector_base<unsigned char, std::allocator<unsigned char>>::_Vector_impl_data", ptr %4, i32 0, i32 0
  %6 = load ptr, ptr %5, align 8, !tbaa !123
  %7 = call noundef ptr @_ZNKSt6vectorIhSaIhEE11_M_data_ptrIhEEPT_S4_(ptr noundef nonnull align 8 dereferenceable(24) %3, ptr noundef %6) #13
  ret ptr %7
}

; Function Attrs: mustprogress uwtable
define dso_local void @_ZN4pbrt11DisplayItem18ImageChannelBuffer13SetTileBoundsEiiii(ptr noundef nonnull align 8 dereferenceable(64) %0, i32 noundef %1, i32 noundef %2, i32 noundef %3, i32 noundef %4) #1 align 2 {
  %6 = alloca ptr, align 8
  %7 = alloca i32, align 4
  %8 = alloca i32, align 4
  %9 = alloca i32, align 4
  %10 = alloca i32, align 4
  %11 = alloca ptr, align 8
  store ptr %0, ptr %6, align 8, !tbaa !102
  store i32 %1, ptr %7, align 4, !tbaa !28
  store i32 %2, ptr %8, align 4, !tbaa !28
  store i32 %3, ptr %9, align 4, !tbaa !28
  store i32 %4, ptr %10, align 4, !tbaa !28
  %12 = load ptr, ptr %6, align 8
  call void @llvm.lifetime.start.p0(i64 8, ptr %11) #13
  %13 = getelementptr inbounds nuw %"struct.pbrt::DisplayItem::ImageChannelBuffer", ptr %12, i32 0, i32 0
  %14 = call noundef ptr @_ZNSt6vectorIhSaIhEE4dataEv(ptr noundef nonnull align 8 dereferenceable(24) %13) #13
  %15 = getelementptr inbounds nuw %"struct.pbrt::DisplayItem::ImageChannelBuffer", ptr %12, i32 0, i32 1
  %16 = load i32, ptr %15, align 8, !tbaa !107
  %17 = sext i32 %16 to i64
  %18 = getelementptr inbounds i8, ptr %14, i64 %17
  store ptr %18, ptr %11, align 8, !tbaa !30
  %19 = load i32, ptr %7, align 4, !tbaa !28
  call void @_ZN4pbrt12_GLOBAL__N_19SerializeIiEEvPPhT_(ptr noundef %11, i32 noundef %19)
  %20 = load i32, ptr %8, align 4, !tbaa !28
  call void @_ZN4pbrt12_GLOBAL__N_19SerializeIiEEvPPhT_(ptr noundef %11, i32 noundef %20)
  %21 = load i32, ptr %9, align 4, !tbaa !28
  call void @_ZN4pbrt12_GLOBAL__N_19SerializeIiEEvPPhT_(ptr noundef %11, i32 noundef %21)
  %22 = load i32, ptr %10, align 4, !tbaa !28
  call void @_ZN4pbrt12_GLOBAL__N_19SerializeIiEEvPPhT_(ptr noundef %11, i32 noundef %22)
  %23 = load i32, ptr %9, align 4, !tbaa !28
  %24 = load i32, ptr %10, align 4, !tbaa !28
  %25 = mul nsw i32 %23, %24
  %26 = getelementptr inbounds nuw %"struct.pbrt::DisplayItem::ImageChannelBuffer", ptr %12, i32 0, i32 4
  store i32 %25, ptr %26, align 8, !tbaa !129
  call void @llvm.lifetime.end.p0(i64 8, ptr %11) #13
  ret void
}