; Function Attrs: mustprogress nofree norecurse nosync nounwind willreturn memory(write, argmem: readwrite, inaccessiblemem: none) uwtable
define dso_local void @_ZN4pbrt11DisplayItem18ImageChannelBuffer13SetTileBoundsEiiii(ptr noundef nonnull align 8 captures(none) dereferenceable(64) initializes((56, 60)) %0, i32 noundef %1, i32 noundef %2, i32 noundef %3, i32 noundef %4) local_unnamed_addr #12 align 2 {
  %6 = load ptr, ptr %0, align 8, !tbaa !91
  %7 = getelementptr inbounds nuw i8, ptr %0, i64 24
  %8 = load i32, ptr %7, align 8, !tbaa !104
  %9 = sext i32 %8 to i64
  %10 = getelementptr inbounds i8, ptr %6, i64 %9
  store i32 %1, ptr %10, align 1
  %11 = getelementptr inbounds nuw i8, ptr %10, i64 4
  store i32 %2, ptr %11, align 1
  %12 = getelementptr inbounds nuw i8, ptr %10, i64 8
  store i32 %3, ptr %12, align 1
  %13 = getelementptr inbounds nuw i8, ptr %10, i64 12
  store i32 %4, ptr %13, align 1
  %14 = mul nsw i32 %4, %3
  %15 = getelementptr inbounds nuw i8, ptr %0, i64 56
  store i32 %14, ptr %15, align 8, !tbaa !114
  ret void
}